; Function Attrs: mustprogress uwtable
define noundef double @_ZN7rocksdb9lru_cache13LRUCacheShard18GetLowPriPoolRatioEv(ptr noundef nonnull align 64 dereferenceable(256) %this) local_unnamed_addr #0 align 2 personality ptr @__gxx_personality_v0 {
entry:
  %mutex_ = getelementptr inbounds i8, ptr %this, i64 208
  tail call void @_ZN7rocksdb4port5Mutex4LockEv(ptr noundef nonnull align 8 dereferenceable(40) %mutex_)
  %low_pri_pool_ratio_ = getelementptr inbounds i8, ptr %this, i64 56
  %0 = load double, ptr %low_pri_pool_ratio_, align 8
  invoke void @_ZN7rocksdb4port5Mutex6UnlockEv(ptr noundef nonnull align 8 dereferenceable(40) %mutex_)
          to label %_ZNSt10lock_guardIN7rocksdb4port5MutexEED2Ev.exit unwind label %terminate.lpad.i

terminate.lpad.i:                                 ; preds = %entry
  %1 = landingpad { ptr, i32 }
          catch ptr null
  %2 = extractvalue { ptr, i32 } %1, 0
  tail call void @__clang_call_terminate(ptr %2) #27
  unreachable

_ZNSt10lock_guardIN7rocksdb4port5MutexEED2Ev.exit: ; preds = %entry
  ret double %0
}